target datalayout = "e-m:e-p270:32:32-p271:32:32-p272:64:64-i64:64-i128:128-f80:128-n8:16:32:64-S128"
target triple = "x86_64-pc-linux-gnu"

%struct.stat = type { i64, i64, i64, i32, i32, i32, i32, i64, i64, i64, i64, %struct.timespec, %struct.timespec, %struct.timespec, [3 x i64] }
%struct.timespec = type { i64, i64 }

; Function Attrs: nounwind uwtable
define hidden i64 @evutil_fd_filesize(i32 noundef %0) #0 {
  %2 = alloca i64, align 8
  %3 = alloca i32, align 4
  %4 = alloca %struct.stat, align 8
  %5 = alloca i32, align 4
  store i32 %0, ptr %3, align 4
  call void @llvm.lifetime.start.p0(i64 144, ptr %4) #11
  %6 = load i32, ptr %3, align 4
  %7 = call i32 @fstat(i32 noundef %6, ptr noundef %4) #11
  %8 = icmp slt i32 %7, 0
  br i1 %8, label %9, label %10

9:                                                ; preds = %1
  store i64 -1, ptr %2, align 8
  store i32 1, ptr %5, align 4
  br label %13

10:                                               ; preds = %1
  %11 = getelementptr inbounds nuw %struct.stat, ptr %4, i32 0, i32 8
  %12 = load i64, ptr %11, align 8
  store i64 %12, ptr %2, align 8
  store i32 1, ptr %5, align 4
  br label %13

13:                                               ; preds = %10, %9
  call void @llvm.lifetime.end.p0(i64 144, ptr %4) #11
  %14 = load i64, ptr %2, align 8
  ret i64 %14
}

; Function Attrs: nounwind uwtable
define hidden i32 @evutil_open_closeonexec_(ptr noundef %0, i32 noundef %1, i32 noundef %2) #0 {
  %4 = alloca i32, align 4
  %5 = alloca ptr, align 8
  %6 = alloca i32, align 4
  %7 = alloca i32, align 4
  %8 = alloca i32, align 4
  %9 = alloca i32, align 4
  store ptr %0, ptr %5, align 8
  store i32 %1, ptr %6, align 4
  store i32 %2, ptr %7, align 4
  call void @llvm.lifetime.start.p0(i64 4, ptr %8) #11
  %10 = load ptr, ptr %5, align 8
  %11 = load i32, ptr %6, align 4
  %12 = or i32 %11, 524288
  %13 = load i32, ptr %7, align 4
  %14 = call i32 (ptr, i32, ...) @open(ptr noundef %10, i32 noundef %12, i32 noundef %13)
  store i32 %14, ptr %8, align 4
  %15 = load i32, ptr %8, align 4
  %16 = icmp sge i32 %15, 0
  br i1 %16, label %21, label %17

17:                                               ; preds = %3
  %18 = call ptr @__errno_location() #12
  %19 = load i32, ptr %18, align 4
  %20 = icmp eq i32 %19, 22
  br i1 %20, label %21, label %23

21:                                               ; preds = %17, %3
  %22 = load i32, ptr %8, align 4
  store i32 %22, ptr %4, align 4
  store i32 1, ptr %9, align 4
  br label %40

23:                                               ; preds = %17
  %24 = load ptr, ptr %5, align 8
  %25 = load i32, ptr %6, align 4
  %26 = load i32, ptr %7, align 4
  %27 = call i32 (ptr, i32, ...) @open(ptr noundef %24, i32 noundef %25, i32 noundef %26)
  store i32 %27, ptr %8, align 4
  %28 = load i32, ptr %8, align 4
  %29 = icmp slt i32 %28, 0
  br i1 %29, label %30, label %31

30:                                               ; preds = %23
  store i32 -1, ptr %4, align 4
  store i32 1, ptr %9, align 4
  br label %40

31:                                               ; preds = %23
  %32 = load i32, ptr %8, align 4
  %33 = call i32 (i32, i32, ...) @fcntl(i32 noundef %32, i32 noundef 2, i32 noundef 1)
  %34 = icmp slt i32 %33, 0
  br i1 %34, label %35, label %38

35:                                               ; preds = %31
  %36 = load i32, ptr %8, align 4
  %37 = call i32 @close(i32 noundef %36)
  store i32 -1, ptr %4, align 4
  store i32 1, ptr %9, align 4
  br label %40

38:                                               ; preds = %31
  %39 = load i32, ptr %8, align 4
  store i32 %39, ptr %4, align 4
  store i32 1, ptr %9, align 4
  br label %40

40:                                               ; preds = %38, %35, %30, %21
  call void @llvm.lifetime.end.p0(i64 4, ptr %8) #11
  %41 = load i32, ptr %4, align 4
  ret i32 %41
}

; Function Attrs: nounwind uwtable
define i32 @evutil_read_file_(ptr noundef %0, ptr noundef %1, ptr noundef %2, i32 noundef %3) #0 {
  %5 = alloca i32, align 4
  %6 = alloca ptr, align 8
  %7 = alloca ptr, align 8
  %8 = alloca ptr, align 8
  %9 = alloca i32, align 4
  %10 = alloca i32, align 4
  %11 = alloca i64, align 8
  %12 = alloca i64, align 8
  %13 = alloca ptr, align 8
  %14 = alloca i64, align 8
  %15 = alloca i32, align 4
  %16 = alloca i32, align 4
  store ptr %0, ptr %6, align 8
  store ptr %1, ptr %7, align 8
  store ptr %2, ptr %8, align 8
  store i32 %3, ptr %9, align 4
  call void @llvm.lifetime.start.p0(i64 4, ptr %10) #11
  call void @llvm.lifetime.start.p0(i64 8, ptr %11) #11
  call void @llvm.lifetime.start.p0(i64 8, ptr %12) #11
  call void @llvm.lifetime.start.p0(i64 8, ptr %13) #11
  call void @llvm.lifetime.start.p0(i64 8, ptr %14) #11
  store i64 0, ptr %14, align 8
  call void @llvm.lifetime.start.p0(i64 4, ptr %15) #11
  store i32 0, ptr %15, align 4
  br label %17

17:                                               ; preds = %4
  br label %18

18:                                               ; preds = %17
  br label %19

19:                                               ; preds = %18
  br label %20

20:                                               ; preds = %19
  br label %21

21:                                               ; preds = %20
  br label %22

22:                                               ; preds = %21
  %23 = load ptr, ptr %7, align 8
  store ptr null, ptr %23, align 8
  %24 = load ptr, ptr %8, align 8
  store i64 0, ptr %24, align 8
  %25 = load ptr, ptr %6, align 8
  %26 = load i32, ptr %15, align 4
  %27 = call i32 @evutil_open_closeonexec_(ptr noundef %25, i32 noundef %26, i32 noundef 0)
  store i32 %27, ptr %10, align 4
  %28 = load i32, ptr %10, align 4
  %29 = icmp slt i32 %28, 0
  br i1 %29, label %30, label %31

30:                                               ; preds = %22
  store i32 -1, ptr %5, align 4
  store i32 1, ptr %16, align 4
  br label %86

31:                                               ; preds = %22
  %32 = load i32, ptr %10, align 4
  %33 = call i64 @evutil_fd_filesize(i32 noundef %32)
  store i64 %33, ptr %12, align 8
  %34 = load i64, ptr %12, align 8
  %35 = icmp slt i64 %34, 0
  br i1 %35, label %39, label %36

36:                                               ; preds = %31
  %37 = load i64, ptr %12, align 8
  %38 = icmp sgt i64 %37, 9223372036854775806
  br i1 %38, label %39, label %42

39:                                               ; preds = %36, %31
  %40 = load i32, ptr %10, align 4
  %41 = call i32 @close(i32 noundef %40)
  store i32 -2, ptr %5, align 4
  store i32 1, ptr %16, align 4
  br label %86

42:                                               ; preds = %36
  %43 = load i64, ptr %12, align 8
  %44 = add nsw i64 %43, 1
  %45 = call ptr @event_mm_malloc_(i64 noundef %44)
  store ptr %45, ptr %13, align 8
  %46 = load ptr, ptr %13, align 8
  %47 = icmp ne ptr %46, null
  br i1 %47, label %51, label %48

48:                                               ; preds = %42
  %49 = load i32, ptr %10, align 4
  %50 = call i32 @close(i32 noundef %49)
  store i32 -2, ptr %5, align 4
  store i32 1, ptr %16, align 4
  br label %86

51:                                               ; preds = %42
  store i64 0, ptr %14, align 8
  br label %52

52:                                               ; preds = %70, %51
  %53 = load i32, ptr %10, align 4
  %54 = load ptr, ptr %13, align 8
  %55 = load i64, ptr %14, align 8
  %56 = getelementptr inbounds nuw i8, ptr %54, i64 %55
  %57 = load i64, ptr %12, align 8
  %58 = load i64, ptr %14, align 8
  %59 = sub i64 %57, %58
  %60 = call i64 @read(i32 noundef %53, ptr noundef %56, i64 noundef %59)
  store i64 %60, ptr %11, align 8
  %61 = icmp sgt i64 %60, 0
  br i1 %61, label %62, label %71

62:                                               ; preds = %52
  %63 = load i64, ptr %11, align 8
  %64 = load i64, ptr %14, align 8
  %65 = add i64 %64, %63
  store i64 %65, ptr %14, align 8
  %66 = load i64, ptr %14, align 8
  %67 = load i64, ptr %12, align 8
  %68 = icmp uge i64 %66, %67
  br i1 %68, label %69, label %70

69:                                               ; preds = %62
  br label %71

70:                                               ; preds = %62
  br label %52, !llvm.loop !3

71:                                               ; preds = %69, %52
  %72 = load i32, ptr %10, align 4
  %73 = call i32 @close(i32 noundef %72)
  %74 = load i64, ptr %11, align 8
  %75 = icmp slt i64 %74, 0
  br i1 %75, label %76, label %78

76:                                               ; preds = %71
  %77 = load ptr, ptr %13, align 8
  call void @event_mm_free_(ptr noundef %77)
  store i32 -2, ptr %5, align 4
  store i32 1, ptr %16, align 4
  br label %86

78:                                               ; preds = %71
  %79 = load ptr, ptr %13, align 8
  %80 = load i64, ptr %14, align 8
  %81 = getelementptr inbounds nuw i8, ptr %79, i64 %80
  store i8 0, ptr %81, align 1
  %82 = load i64, ptr %14, align 8
  %83 = load ptr, ptr %8, align 8
  store i64 %82, ptr %83, align 8
  %84 = load ptr, ptr %13, align 8
  %85 = load ptr, ptr %7, align 8
  store ptr %84, ptr %85, align 8
  store i32 0, ptr %5, align 4
  store i32 1, ptr %16, align 4
  br label %86

86:                                               ; preds = %78, %76, %48, %39, %30
  call void @llvm.lifetime.end.p0(i64 4, ptr %15) #11
  call void @llvm.lifetime.end.p0(i64 8, ptr %14) #11
  call void @llvm.lifetime.end.p0(i64 8, ptr %13) #11
  call void @llvm.lifetime.end.p0(i64 8, ptr %12) #11
  call void @llvm.lifetime.end.p0(i64 8, ptr %11) #11
  call void @llvm.lifetime.end.p0(i64 4, ptr %10) #11
  %87 = load i32, ptr %5, align 4
  ret i32 %87
}