; Function Attrs: nounwind uwtable
define range(i32 -2, 1) i32 @evutil_read_file_(ptr noundef readonly captures(none) %0, ptr noundef writeonly captures(none) initializes((0, 8)) %1, ptr noundef writeonly captures(none) initializes((0, 8)) %2, i32 noundef %3) local_unnamed_addr #0 {
  %5 = alloca %struct.stat, align 8
  store ptr null, ptr %1, align 8
  store i64 0, ptr %2, align 8
  %6 = tail call i32 (ptr, i32, ...) @open(ptr noundef readonly %0, i32 noundef 524288, i32 noundef 0) #30
  %7 = icmp sgt i32 %6, -1
  br i1 %7, label %evutil_open_closeonexec_.exit, label %8

8:                                                ; preds = %4
  %9 = tail call ptr @__errno_location() #31
  %10 = load i32, ptr %9, align 4
  %11 = icmp eq i32 %10, 22
  br i1 %11, label %evutil_open_closeonexec_.exit.thread, label %12

12:                                               ; preds = %8
  %13 = tail call i32 (ptr, i32, ...) @open(ptr noundef readonly %0, i32 noundef 0, i32 noundef 0) #30
  %14 = icmp slt i32 %13, 0
  br i1 %14, label %evutil_open_closeonexec_.exit.thread, label %15

15:                                               ; preds = %12
  %16 = tail call i32 (i32, i32, ...) @fcntl(i32 noundef %13, i32 noundef 2, i32 noundef 1) #30
  %17 = icmp slt i32 %16, 0
  br i1 %17, label %18, label %evutil_open_closeonexec_.exit

18:                                               ; preds = %15
  %19 = tail call i32 @close(i32 noundef %13) #30
  br label %evutil_open_closeonexec_.exit.thread

evutil_open_closeonexec_.exit:                    ; preds = %15, %4
  %.0.i = phi i32 [ %6, %4 ], [ %13, %15 ]
  call void @llvm.lifetime.start.p0(i64 144, ptr nonnull %5) #30
  %20 = call i32 @fstat(i32 noundef %.0.i, ptr noundef nonnull %5) #30
  %21 = icmp slt i32 %20, 0
  %22 = getelementptr inbounds nuw i8, ptr %5, i64 48
  %23 = load i64, ptr %22, align 8
  %.0.i39 = select i1 %21, i64 -1, i64 %23
  call void @llvm.lifetime.end.p0(i64 144, ptr nonnull %5) #30
  %or.cond = icmp ugt i64 %.0.i39, 9223372036854775806
  br i1 %or.cond, label %24, label %26

24:                                               ; preds = %evutil_open_closeonexec_.exit
  %25 = tail call i32 @close(i32 noundef %.0.i) #30
  br label %evutil_open_closeonexec_.exit.thread

26:                                               ; preds = %evutil_open_closeonexec_.exit
  %27 = add nuw nsw i64 %.0.i39, 1
  %28 = tail call ptr @event_mm_malloc_(i64 noundef %27) #30
  %.not = icmp eq ptr %28, null
  br i1 %.not, label %29, label %.preheader

29:                                               ; preds = %26
  %30 = tail call i32 @close(i32 noundef %.0.i) #30
  br label %evutil_open_closeonexec_.exit.thread

.preheader:                                       ; preds = %26, %35
  %.031 = phi i64 [ %36, %35 ], [ 0, %26 ]
  %31 = getelementptr inbounds nuw i8, ptr %28, i64 %.031
  %32 = sub nsw i64 %.0.i39, %.031
  %33 = tail call i64 @read(i32 noundef %.0.i, ptr noundef nonnull %31, i64 noundef %32) #30
  %34 = icmp sgt i64 %33, 0
  br i1 %34, label %35, label %38

35:                                               ; preds = %.preheader
  %36 = add nuw i64 %33, %.031
  %.not38 = icmp ult i64 %36, %.0.i39
  br i1 %.not38, label %.preheader, label %.thread, !llvm.loop !3

.thread:                                          ; preds = %35
  %37 = tail call i32 @close(i32 noundef %.0.i) #30
  br label %42

38:                                               ; preds = %.preheader
  %39 = tail call i32 @close(i32 noundef %.0.i) #30
  %40 = icmp slt i64 %33, 0
  br i1 %40, label %41, label %42

41:                                               ; preds = %38
  tail call void @event_mm_free_(ptr noundef nonnull %28) #30
  br label %evutil_open_closeonexec_.exit.thread

42:                                               ; preds = %.thread, %38
  %.142 = phi i64 [ %36, %.thread ], [ %.031, %38 ]
  %43 = getelementptr inbounds nuw i8, ptr %28, i64 %.142
  store i8 0, ptr %43, align 1
  store i64 %.142, ptr %2, align 8
  store ptr %28, ptr %1, align 8
  br label %evutil_open_closeonexec_.exit.thread

evutil_open_closeonexec_.exit.thread:             ; preds = %12, %8, %18, %42, %41, %29, %24
  %.0 = phi i32 [ -2, %24 ], [ -2, %41 ], [ 0, %42 ], [ -2, %29 ], [ -1, %18 ], [ -1, %8 ], [ -1, %12 ]
  ret i32 %.0
}